target datalayout = "e-m:e-p270:32:32-p271:32:32-p272:64:64-i64:64-i128:128-f80:128-n8:16:32:64-S128"
target triple = "x86_64-pc-linux-gnu"

%"class.mitsuba::MemoryStream" = type <{ %"class.mitsuba::Stream", i64, i64, i64, i8, [7 x i8], ptr, i8, [7 x i8] }>
%"class.mitsuba::Stream" = type { %"class.mitsuba::Object.base", i32 }
%"class.mitsuba::Object.base" = type <{ ptr, %"struct.std::__1::atomic" }>
%"struct.std::__1::atomic" = type { %"struct.std::__1::__atomic_base" }
%"struct.std::__1::__atomic_base" = type { %"struct.std::__1::__atomic_base.0" }
%"struct.std::__1::__atomic_base.0" = type { %"struct.std::__1::__cxx_atomic_impl" }
%"struct.std::__1::__cxx_atomic_impl" = type { %"struct.std::__1::__cxx_atomic_base_impl" }
%"struct.std::__1::__cxx_atomic_base_impl" = type { i32 }
%"class.std::__1::basic_string" = type { %"class.std::__1::__compressed_pair" }
%"class.std::__1::__compressed_pair" = type { %"struct.std::__1::__compressed_pair_elem" }
%"struct.std::__1::__compressed_pair_elem" = type { %"struct.std::__1::basic_string<char>::__rep" }
%"struct.std::__1::basic_string<char>::__rep" = type { %union.anon }
%union.anon = type { %"struct.std::__1::basic_string<char>::__long" }
%"struct.std::__1::basic_string<char>::__long" = type { %struct.anon.1, i64, ptr }
%struct.anon.1 = type { i64 }

@_ZN7mitsuba12MemoryStream7m_classE = global ptr null, align 8
@.str = private unnamed_addr constant [116 x i8] c"generated/home/dtcxzyw/WorkSpace/Projects/compilers/llvm-opt-benchmark/bench/mitsuba3/mitsuba3/src/core/mstream.cpp\00", align 1
@.str.1 = private unnamed_addr constant [43 x i8] c"Attempted to read from a closed stream: %s\00", align 1

; Function Attrs: mustprogress uwtable
define void @_ZN7mitsuba12MemoryStream4readEPvm(ptr noundef nonnull align 8 dereferenceable(57) %0, ptr noundef %1, i64 noundef %2) unnamed_addr #0 align 2 personality ptr @__gxx_personality_v0 {
  %4 = alloca ptr, align 8
  %5 = alloca ptr, align 8
  %6 = alloca i64, align 8
  %7 = alloca %"class.std::__1::basic_string", align 8
  %8 = alloca %"class.std::__1::basic_string", align 8
  %9 = alloca ptr, align 8
  %10 = alloca i32, align 4
  %11 = alloca i64, align 8
  store ptr %0, ptr %4, align 8
  store ptr %1, ptr %5, align 8
  store i64 %2, ptr %6, align 8
  %12 = load ptr, ptr %4, align 8
  %13 = load ptr, ptr %12, align 8
  %14 = getelementptr inbounds ptr, ptr %13, i64 10
  %15 = load ptr, ptr %14, align 8
  %16 = call noundef zeroext i1 %15(ptr noundef nonnull align 8 dereferenceable(57) %12)
  br i1 %16, label %17, label %35

17:                                               ; preds = %3
  br label %18

18:                                               ; preds = %17
  %19 = load ptr, ptr @_ZN7mitsuba12MemoryStream7m_classE, align 8
  %20 = load ptr, ptr %12, align 8
  %21 = getelementptr inbounds ptr, ptr %20, i64 6
  %22 = load ptr, ptr %21, align 8
  call void %22(ptr dead_on_unwind writable sret(%"class.std::__1::basic_string") align 8 %8, ptr noundef nonnull align 8 dereferenceable(57) %12)
  invoke void @_ZN10tinyformat6formatIJNSt3__112basic_stringIcNS1_11char_traitsIcEENS1_9allocatorIcEEEEEEES7_PKcDpRKT_(ptr dead_on_unwind writable sret(%"class.std::__1::basic_string") align 8 %7, ptr noundef @.str.1, ptr noundef nonnull align 8 dereferenceable(24) %8)
          to label %23 unwind label %25

23:                                               ; preds = %18
  invoke void @_ZN7mitsuba6detail5ThrowENS_8LogLevelEPKNS_5ClassEPKciRKNSt3__112basic_stringIcNS7_11char_traitsIcEENS7_9allocatorIcEEEE(i32 noundef 400, ptr noundef %19, ptr noundef @.str, i32 noundef 23, ptr noundef nonnull align 8 dereferenceable(24) %7) #16
          to label %24 unwind label %29

24:                                               ; preds = %23
  unreachable

25:                                               ; preds = %18
  %26 = landingpad { ptr, i32 }
          cleanup
  %27 = extractvalue { ptr, i32 } %26, 0
  store ptr %27, ptr %9, align 8
  %28 = extractvalue { ptr, i32 } %26, 1
  store i32 %28, ptr %10, align 4
  br label %33

29:                                               ; preds = %23
  %30 = landingpad { ptr, i32 }
          cleanup
  %31 = extractvalue { ptr, i32 } %30, 0
  store ptr %31, ptr %9, align 8
  %32 = extractvalue { ptr, i32 } %30, 1
  store i32 %32, ptr %10, align 4
  call void @_ZNSt3__112basic_stringIcNS_11char_traitsIcEENS_9allocatorIcEEED1Ev(ptr noundef nonnull align 8 dereferenceable(24) %7) #15
  br label %33

33:                                               ; preds = %29, %25
  call void @_ZNSt3__112basic_stringIcNS_11char_traitsIcEENS_9allocatorIcEEED1Ev(ptr noundef nonnull align 8 dereferenceable(24) %8) #15
  br label %77

34:                                               ; No predecessors!
  br label %35

35:                                               ; preds = %34, %3
  %36 = getelementptr inbounds %"class.mitsuba::MemoryStream", ptr %12, i32 0, i32 3
  %37 = load i64, ptr %36, align 8
  %38 = load i64, ptr %6, align 8
  %39 = add i64 %37, %38
  %40 = getelementptr inbounds %"class.mitsuba::MemoryStream", ptr %12, i32 0, i32 2
  %41 = load i64, ptr %40, align 8
  %42 = icmp ugt i64 %39, %41
  br i1 %42, label %43, label %64

43:                                               ; preds = %35
  %44 = getelementptr inbounds %"class.mitsuba::MemoryStream", ptr %12, i32 0, i32 2
  %45 = load i64, ptr %44, align 8
  %46 = getelementptr inbounds %"class.mitsuba::MemoryStream", ptr %12, i32 0, i32 3
  %47 = load i64, ptr %46, align 8
  %48 = sub i64 %45, %47
  store i64 %48, ptr %11, align 8
  %49 = load i64, ptr %11, align 8
  %50 = icmp sgt i64 %49, 0
  br i1 %50, label %51, label %63

51:                                               ; preds = %43
  %52 = load ptr, ptr %5, align 8
  %53 = getelementptr inbounds %"class.mitsuba::MemoryStream", ptr %12, i32 0, i32 6
  %54 = load ptr, ptr %53, align 8
  %55 = getelementptr inbounds %"class.mitsuba::MemoryStream", ptr %12, i32 0, i32 3
  %56 = load i64, ptr %55, align 8
  %57 = getelementptr inbounds i8, ptr %54, i64 %56
  %58 = load i64, ptr %11, align 8
  call void @llvm.memcpy.p0.p0.i64(ptr align 1 %52, ptr align 1 %57, i64 %58, i1 false)
  %59 = load i64, ptr %11, align 8
  %60 = getelementptr inbounds %"class.mitsuba::MemoryStream", ptr %12, i32 0, i32 3
  %61 = load i64, ptr %60, align 8
  %62 = add i64 %61, %59
  store i64 %62, ptr %60, align 8
  br label %63

63:                                               ; preds = %51, %43
  br label %76

64:                                               ; preds = %35
  %65 = load ptr, ptr %5, align 8
  %66 = getelementptr inbounds %"class.mitsuba::MemoryStream", ptr %12, i32 0, i32 6
  %67 = load ptr, ptr %66, align 8
  %68 = getelementptr inbounds %"class.mitsuba::MemoryStream", ptr %12, i32 0, i32 3
  %69 = load i64, ptr %68, align 8
  %70 = getelementptr inbounds i8, ptr %67, i64 %69
  %71 = load i64, ptr %6, align 8
  call void @llvm.memcpy.p0.p0.i64(ptr align 1 %65, ptr align 1 %70, i64 %71, i1 false)
  %72 = load i64, ptr %6, align 8
  %73 = getelementptr inbounds %"class.mitsuba::MemoryStream", ptr %12, i32 0, i32 3
  %74 = load i64, ptr %73, align 8
  %75 = add i64 %74, %72
  store i64 %75, ptr %73, align 8
  br label %76

76:                                               ; preds = %64, %63
  ret void

77:                                               ; preds = %33
  %78 = load ptr, ptr %9, align 8
  %79 = load i32, ptr %10, align 4
  %80 = insertvalue { ptr, i32 } poison, ptr %78, 0
  %81 = insertvalue { ptr, i32 } %80, i32 %79, 1
  resume { ptr, i32 } %81
}